target datalayout = "e-m:e-p270:32:32-p271:32:32-p272:64:64-i64:64-i128:128-f80:128-n8:16:32:64-S128"
target triple = "x86_64-pc-linux-gnu"

%struct.ZSTDv05_parameters = type { i64, i32, i32, i32, i32, i32, i32, i32 }
%struct.ZBUFFv05_DCtx_s = type { ptr, %struct.ZSTDv05_parameters, ptr, i64, i64, ptr, i64, i64, i64, i64, i32, [5 x i8] }

; Function Attrs: nounwind uwtable
define i64 @ZBUFFv05_decompressInitDictionary(ptr noundef %0, ptr noundef %1, i64 noundef %2) #0 {
  %4 = alloca ptr, align 8
  %5 = alloca ptr, align 8
  %6 = alloca i64, align 8
  store ptr %0, ptr %4, align 8, !tbaa !96
  store ptr %1, ptr %5, align 8, !tbaa !12
  store i64 %2, ptr %6, align 8, !tbaa !29
  %7 = load ptr, ptr %4, align 8, !tbaa !96
  %8 = getelementptr inbounds nuw %struct.ZBUFFv05_DCtx_s, ptr %7, i32 0, i32 10
  store i32 1, ptr %8, align 8, !tbaa !100
  %9 = load ptr, ptr %4, align 8, !tbaa !96
  %10 = getelementptr inbounds nuw %struct.ZBUFFv05_DCtx_s, ptr %9, i32 0, i32 8
  store i64 0, ptr %10, align 8, !tbaa !103
  %11 = load ptr, ptr %4, align 8, !tbaa !96
  %12 = getelementptr inbounds nuw %struct.ZBUFFv05_DCtx_s, ptr %11, i32 0, i32 7
  store i64 0, ptr %12, align 8, !tbaa !104
  %13 = load ptr, ptr %4, align 8, !tbaa !96
  %14 = getelementptr inbounds nuw %struct.ZBUFFv05_DCtx_s, ptr %13, i32 0, i32 4
  store i64 0, ptr %14, align 8, !tbaa !105
  %15 = load ptr, ptr %4, align 8, !tbaa !96
  %16 = getelementptr inbounds nuw %struct.ZBUFFv05_DCtx_s, ptr %15, i32 0, i32 9
  store i64 0, ptr %16, align 8, !tbaa !106
  %17 = load ptr, ptr %4, align 8, !tbaa !96
  %18 = getelementptr inbounds nuw %struct.ZBUFFv05_DCtx_s, ptr %17, i32 0, i32 0
  %19 = load ptr, ptr %18, align 8, !tbaa !98
  %20 = load ptr, ptr %5, align 8, !tbaa !12
  %21 = load i64, ptr %6, align 8, !tbaa !29
  %22 = call i64 @ZSTDv05_decompressBegin_usingDict(ptr noundef %19, ptr noundef %20, i64 noundef %21)
  ret i64 %22
}