; Function Attrs: nofree norecurse nosync nounwind memory(readwrite, inaccessiblemem: none) uwtable
define range(i64 -30, 1) i64 @ZBUFFv05_decompressInitDictionary(ptr noundef captures(none) initializes((64, 72), (88, 116)) %0, ptr noundef %1, i64 noundef %2) local_unnamed_addr #20 {
  %4 = getelementptr inbounds nuw i8, ptr %0, i64 112
  store i32 1, ptr %4, align 8, !tbaa !92
  %5 = getelementptr inbounds nuw i8, ptr %0, i64 88
  %6 = getelementptr inbounds nuw i8, ptr %0, i64 64
  store i64 0, ptr %6, align 8, !tbaa !95
  tail call void @llvm.memset.p0.i64(ptr noundef nonnull align 8 dereferenceable(24) %5, i8 0, i64 24, i1 false)
  %7 = load ptr, ptr %0, align 8, !tbaa !89
  %8 = tail call i64 @ZSTDv05_decompressBegin_usingDict(ptr noundef %7, ptr noundef %1, i64 noundef %2)
  ret i64 %8
}